; Function Attrs: mustprogress uwtable
define dso_local void @_Z19TestWriterInterfaced(double noundef %0) local_unnamed_addr #3 personality ptr @__gxx_personality_v0 {
  %2 = alloca %"struct.pxrInternal_v0_24__pxrReserved__::Tf_DiagnosticLiteHelper", align 8
  %3 = alloca %"struct.pxrInternal_v0_24__pxrReserved__::Tf_DiagnosticLiteHelper", align 8
  %4 = alloca %"class.std::__cxx11::basic_stringstream", align 8
  %5 = alloca %"class.pxrInternal_v0_24__pxrReserved__::JsWriter", align 8
  %6 = alloca %"class.std::__cxx11::basic_string", align 8
  %7 = alloca %"class.pxrInternal_v0_24__pxrReserved__::JsValue", align 8
  call void @_ZNSt7__cxx1118basic_stringstreamIcSt11char_traitsIcESaIcEEC1Ev(ptr noundef nonnull align 8 dereferenceable(128) %4)
  %8 = getelementptr inbounds i8, ptr %4, i64 16
  %.sink20.sroa.gep = getelementptr inbounds i8, ptr %3, i64 8
  %.sink20.sroa.gep21 = getelementptr inbounds i8, ptr %2, i64 8
  %.sink20.sroa.gep23 = getelementptr inbounds i8, ptr %3, i64 16
  %.sink20.sroa.gep24 = getelementptr inbounds i8, ptr %2, i64 16
  %.sink20.sroa.gep26 = getelementptr inbounds i8, ptr %3, i64 24
  %.sink20.sroa.gep27 = getelementptr inbounds i8, ptr %2, i64 24
  %.sink20.sroa.gep29 = getelementptr inbounds i8, ptr %3, i64 32
  %.sink20.sroa.gep30 = getelementptr inbounds i8, ptr %2, i64 32
  %.sink20.sroa.gep32 = getelementptr inbounds nuw i8, ptr %3, i64 40
  %.sink20.sroa.gep33 = getelementptr inbounds nuw i8, ptr %2, i64 40
  invoke void @_ZN32pxrInternal_v0_24__pxrReserved__8JsWriterC1ERSoNS0_5StyleE(ptr noundef nonnull align 8 dereferenceable(8) %5, ptr noundef nonnull align 8 dereferenceable(8) %8, i32 noundef 0)
          to label %9 unwind label %62

9:                                                ; preds = %1
  %10 = invoke noundef zeroext i1 @_ZN32pxrInternal_v0_24__pxrReserved__8JsWriter10WriteValueEd(ptr noundef nonnull align 8 dereferenceable(8) %5, double noundef %0)
          to label %11 unwind label %64

11:                                               ; preds = %9
  invoke void @_ZNKSt7__cxx1118basic_stringstreamIcSt11char_traitsIcESaIcEE3strEv(ptr dead_on_unwind nonnull writable sret(%"class.std::__cxx11::basic_string") align 8 %6, ptr noundef nonnull align 8 dereferenceable(128) %4)
          to label %12 unwind label %64

12:                                               ; preds = %11
  %13 = invoke noundef nonnull align 8 dereferenceable(8) ptr @_ZStlsIcSt11char_traitsIcESaIcEERSt13basic_ostreamIT_T0_ES7_RKNSt7__cxx1112basic_stringIS4_S5_T1_EE(ptr noundef nonnull align 8 dereferenceable(8) @_ZSt4cout, ptr noundef nonnull align 8 dereferenceable(32) %6)
          to label %14 unwind label %66

14:                                               ; preds = %12
  %15 = invoke noundef nonnull align 8 dereferenceable(8) ptr @_ZNSolsEPFRSoS_E(ptr noundef nonnull align 8 dereferenceable(8) %13, ptr noundef nonnull @_ZSt4endlIcSt11char_traitsIcEERSt13basic_ostreamIT_T0_ES6_)
          to label %16 unwind label %66

16:                                               ; preds = %14
  call void @_ZNSt7__cxx1112basic_stringIcSt11char_traitsIcESaIcEED1Ev(ptr noundef nonnull align 8 dereferenceable(32) %6) #9
  invoke void @_ZN32pxrInternal_v0_24__pxrReserved__13JsParseStreamERSiPNS_12JsParseErrorE(ptr dead_on_unwind nonnull writable sret(%"class.pxrInternal_v0_24__pxrReserved__::JsValue") align 8 %7, ptr noundef nonnull align 8 dereferenceable(16) %4, ptr noundef null)
          to label %17 unwind label %64

17:                                               ; preds = %16
  %18 = invoke noundef zeroext i1 @_ZNK32pxrInternal_v0_24__pxrReserved__7JsValue6IsRealEv(ptr noundef nonnull align 8 dereferenceable(16) %7)
          to label %19 unwind label %68

19:                                               ; preds = %17
  call void @llvm.lifetime.start.p0(i64 48, ptr nonnull %3)
  br i1 %18, label %20, label %.invoke

20:                                               ; preds = %19
  call void @llvm.lifetime.end.p0(i64 48, ptr nonnull %3)
  %21 = invoke noundef double @_ZNK32pxrInternal_v0_24__pxrReserved__7JsValue7GetRealEv(ptr noundef nonnull align 8 dereferenceable(16) %7)
          to label %22 unwind label %68

22:                                               ; preds = %20
  %23 = fcmp oeq double %21, %0
  call void @llvm.lifetime.start.p0(i64 48, ptr nonnull %2)
  br i1 %23, label %25, label %.invoke

.invoke:                                          ; preds = %22, %19
  %.sink20.sroa.phi = phi ptr [ %.sink20.sroa.gep, %19 ], [ %.sink20.sroa.gep21, %22 ]
  %.sink20.sroa.phi22 = phi ptr [ %.sink20.sroa.gep23, %19 ], [ %.sink20.sroa.gep24, %22 ]
  %.sink20.sroa.phi25 = phi ptr [ %.sink20.sroa.gep26, %19 ], [ %.sink20.sroa.gep27, %22 ]
  %.sink20.sroa.phi28 = phi ptr [ %.sink20.sroa.gep29, %19 ], [ %.sink20.sroa.gep30, %22 ]
  %.sink20.sroa.phi31 = phi ptr [ %.sink20.sroa.gep32, %19 ], [ %.sink20.sroa.gep33, %22 ]
  %.sink20 = phi ptr [ %3, %19 ], [ %2, %22 ]
  %.sink17 = phi i64 [ 37, %19 ], [ 38, %22 ]
  %24 = phi ptr [ @.str.1, %19 ], [ @.str.2, %22 ]
  store ptr @.str, ptr %.sink20, align 8
  store ptr @__func__._Z19TestWriterInterfaced, ptr %.sink20.sroa.phi, align 8
  store i64 %.sink17, ptr %.sink20.sroa.phi22, align 8
  store ptr @__PRETTY_FUNCTION__._Z19TestWriterInterfaced, ptr %.sink20.sroa.phi25, align 8
  store i8 0, ptr %.sink20.sroa.phi28, align 8
  store i32 4, ptr %.sink20.sroa.phi31, align 8
  invoke void (ptr, ptr, ...) @_ZNK32pxrInternal_v0_24__pxrReserved__23Tf_DiagnosticLiteHelper15IssueFatalErrorEPKcz(ptr noundef nonnull align 8 dereferenceable(44) %.sink20, ptr noundef nonnull @.str.3, ptr noundef nonnull %24) #10
          to label %.cont unwind label %68

.cont:                                            ; preds = %.invoke
  unreachable

25:                                               ; preds = %22
  call void @llvm.lifetime.end.p0(i64 48, ptr nonnull %2)
  %26 = getelementptr inbounds nuw i8, ptr %7, i64 8
  %27 = load ptr, ptr %26, align 8
  %.not.i.i.i.i = icmp eq ptr %27, null
  br i1 %.not.i.i.i.i, label %_ZN32pxrInternal_v0_24__pxrReserved__7JsValueD2Ev.exit, label %28

28:                                               ; preds = %25
  %29 = getelementptr inbounds nuw i8, ptr %27, i64 8
  %30 = load atomic i64, ptr %29 acquire, align 8
  %31 = icmp eq i64 %30, 4294967297
  %32 = trunc i64 %30 to i32
  br i1 %31, label %33, label %38

33:                                               ; preds = %28
  store i32 0, ptr %29, align 8
  %34 = getelementptr inbounds nuw i8, ptr %27, i64 12
  store i32 0, ptr %34, align 4
  %35 = load ptr, ptr %27, align 8
  %36 = getelementptr inbounds i8, ptr %35, i64 16
  %37 = load ptr, ptr %36, align 8
  call void %37(ptr noundef nonnull align 8 dereferenceable(16) %27) #9
  br label %_ZNSt16_Sp_counted_baseILN9__gnu_cxx12_Lock_policyE2EE24_M_release_last_use_coldEv.exit.sink.split.i.i.i.i.i

38:                                               ; preds = %28
  %39 = load i8, ptr @__libc_single_threaded, align 1
  %.not.i.i.i.i.i = icmp eq i8 %39, 0
  br i1 %.not.i.i.i.i.i, label %42, label %40

40:                                               ; preds = %38
  %41 = add nsw i32 %32, -1
  store i32 %41, ptr %29, align 4
  br label %44

42:                                               ; preds = %38
  %43 = atomicrmw volatile add ptr %29, i32 -1 acq_rel, align 4
  br label %44

44:                                               ; preds = %42, %40
  %.0.i.i.i.i.i = phi i32 [ %32, %40 ], [ %43, %42 ]
  %45 = icmp eq i32 %.0.i.i.i.i.i, 1
  br i1 %45, label %46, label %_ZN32pxrInternal_v0_24__pxrReserved__7JsValueD2Ev.exit

46:                                               ; preds = %44
  %47 = load ptr, ptr %27, align 8
  %48 = getelementptr inbounds i8, ptr %47, i64 16
  %49 = load ptr, ptr %48, align 8
  call void %49(ptr noundef nonnull align 8 dereferenceable(16) %27) #9
  %50 = getelementptr inbounds nuw i8, ptr %27, i64 12
  %51 = load i8, ptr @__libc_single_threaded, align 1
  %.not.i.i.i.i.i.i.i = icmp eq i8 %51, 0
  br i1 %.not.i.i.i.i.i.i.i, label %55, label %52

52:                                               ; preds = %46
  %53 = load i32, ptr %50, align 4
  %54 = add nsw i32 %53, -1
  store i32 %54, ptr %50, align 4
  br label %57

55:                                               ; preds = %46
  %56 = atomicrmw volatile add ptr %50, i32 -1 acq_rel, align 4
  br label %57

57:                                               ; preds = %55, %52
  %.0.i.i.i.i.i.i.i = phi i32 [ %53, %52 ], [ %56, %55 ]
  %58 = icmp eq i32 %.0.i.i.i.i.i.i.i, 1
  br i1 %58, label %_ZNSt16_Sp_counted_baseILN9__gnu_cxx12_Lock_policyE2EE24_M_release_last_use_coldEv.exit.sink.split.i.i.i.i.i, label %_ZN32pxrInternal_v0_24__pxrReserved__7JsValueD2Ev.exit

_ZNSt16_Sp_counted_baseILN9__gnu_cxx12_Lock_policyE2EE24_M_release_last_use_coldEv.exit.sink.split.i.i.i.i.i: ; preds = %57, %33
  %59 = load ptr, ptr %27, align 8
  %60 = getelementptr inbounds i8, ptr %59, i64 24
  %61 = load ptr, ptr %60, align 8
  call void %61(ptr noundef nonnull align 8 dereferenceable(16) %27) #9
  br label %_ZN32pxrInternal_v0_24__pxrReserved__7JsValueD2Ev.exit

_ZN32pxrInternal_v0_24__pxrReserved__7JsValueD2Ev.exit: ; preds = %25, %44, %57, %_ZNSt16_Sp_counted_baseILN9__gnu_cxx12_Lock_policyE2EE24_M_release_last_use_coldEv.exit.sink.split.i.i.i.i.i
  call void @_ZN32pxrInternal_v0_24__pxrReserved__8JsWriterD1Ev(ptr noundef nonnull align 8 dereferenceable(8) %5) #9
  call void @_ZNSt7__cxx1118basic_stringstreamIcSt11char_traitsIcESaIcEED1Ev(ptr noundef nonnull align 8 dereferenceable(128) %4) #9
  ret void

62:                                               ; preds = %1
  %63 = landingpad { ptr, i32 }
          cleanup
  br label %71

64:                                               ; preds = %16, %11, %9
  %65 = landingpad { ptr, i32 }
          cleanup
  br label %70

66:                                               ; preds = %14, %12
  %67 = landingpad { ptr, i32 }
          cleanup
  call void @_ZNSt7__cxx1112basic_stringIcSt11char_traitsIcESaIcEED1Ev(ptr noundef nonnull align 8 dereferenceable(32) %6) #9
  br label %70

68:                                               ; preds = %.invoke, %20, %17
  %69 = landingpad { ptr, i32 }
          cleanup
  call void @_ZN32pxrInternal_v0_24__pxrReserved__7JsValueD2Ev(ptr noundef nonnull align 8 dereferenceable(16) %7) #9
  br label %70

70:                                               ; preds = %68, %66, %64
  %.pn = phi { ptr, i32 } [ %69, %68 ], [ %65, %64 ], [ %67, %66 ]
  call void @_ZN32pxrInternal_v0_24__pxrReserved__8JsWriterD1Ev(ptr noundef nonnull align 8 dereferenceable(8) %5) #9
  br label %71

71:                                               ; preds = %70, %62
  %.pn.pn = phi { ptr, i32 } [ %.pn, %70 ], [ %63, %62 ]
  call void @_ZNSt7__cxx1118basic_stringstreamIcSt11char_traitsIcESaIcEED1Ev(ptr noundef nonnull align 8 dereferenceable(128) %4) #9
  resume { ptr, i32 } %.pn.pn
}